target datalayout = "e-m:e-p270:32:32-p271:32:32-p272:64:64-i64:64-i128:128-f80:128-n8:16:32:64-S128"
target triple = "x86_64-unknown-linux-gnu"

%class.aiVector3t = type { float, float, float }
%struct.aiColor3D = type { float, float, float }

@.str = private unnamed_addr constant [6 x i8] c"XGL: \00", align 1
@.str.84 = private unnamed_addr constant [36 x i8] c"color values out of range, ignoring\00", align 1

; Function Attrs: mustprogress nounwind uwtable
define hidden noundef ptr @_ZN6Assimp12LogFunctionsINS_11XGLImporterEE6PrefixEv() #0 align 2 {
entry:
  ret ptr @.str
}

; Function Attrs: mustprogress nounwind uwtable
define linkonce_odr hidden void @_ZN9aiColor3DC2Efff(ptr noundef nonnull align 4 dereferenceable(12) %this, float noundef %_r, float noundef %_g, float noundef %_b) unnamed_addr #0 comdat align 2 {
entry:
  %this.addr = alloca ptr, align 8
  %_r.addr = alloca float, align 4
  %_g.addr = alloca float, align 4
  %_b.addr = alloca float, align 4
  store ptr %this, ptr %this.addr, align 8
  store float %_r, ptr %_r.addr, align 4
  store float %_g, ptr %_g.addr, align 4
  store float %_b, ptr %_b.addr, align 4
  %this1 = load ptr, ptr %this.addr, align 8
  %r = getelementptr inbounds %struct.aiColor3D, ptr %this1, i32 0, i32 0
  %0 = load float, ptr %_r.addr, align 4
  store float %0, ptr %r, align 4
  %g = getelementptr inbounds %struct.aiColor3D, ptr %this1, i32 0, i32 1
  %1 = load float, ptr %_g.addr, align 4
  store float %1, ptr %g, align 4
  %b = getelementptr inbounds %struct.aiColor3D, ptr %this1, i32 0, i32 2
  %2 = load float, ptr %_b.addr, align 4
  store float %2, ptr %b, align 4
  ret void
}

; Function Attrs: mustprogress uwtable
define linkonce_odr hidden void @_ZN6Assimp12LogFunctionsINS_11XGLImporterEE7LogWarnIJRA36_KcEEEvDpOT_(ptr noundef nonnull align 1 dereferenceable(36) %args) #2 comdat align 2 {
entry:
  %args.addr = alloca ptr, align 8
  %ref.tmp = alloca ptr, align 8
  store ptr %args, ptr %args.addr, align 8
  %call = call noundef zeroext i1 @_ZN6Assimp13DefaultLogger12isNullLoggerEv()
  br i1 %call, label %if.end, label %if.then

if.then:                                          ; preds = %entry
  %call1 = call noundef ptr @_ZN6Assimp13DefaultLogger3getEv()
  %call2 = call noundef ptr @_ZN6Assimp12LogFunctionsINS_11XGLImporterEE6PrefixEv()
  store ptr %call2, ptr %ref.tmp, align 8
  %0 = load ptr, ptr %args.addr, align 8
  call void @_ZN6Assimp6Logger4warnIJPKcRA36_S2_EEEvDpOT_(ptr noundef nonnull align 8 dereferenceable(12) %call1, ptr noundef nonnull align 8 dereferenceable(8) %ref.tmp, ptr noundef nonnull align 1 dereferenceable(36) %0)
  br label %if.end

if.end:                                           ; preds = %if.then, %entry
  ret void
}

; Function Attrs: mustprogress uwtable
define hidden void @_ZN6Assimp11XGLImporter8ReadCol3ERN4pugi8xml_nodeE(ptr noalias sret(%struct.aiColor3D) align 4 %agg.result, ptr noundef nonnull align 8 dereferenceable(88) %this, ptr noundef nonnull align 8 dereferenceable(8) %node) #12 align 2 {
entry:
  %result.ptr = alloca ptr, align 8
  %this.addr = alloca ptr, align 8
  %node.addr = alloca ptr, align 8
  %v = alloca ptr, align 8
  %ref.tmp = alloca %class.aiVector3t, align 4
  %tmp.coerce = alloca { <2 x float>, float }, align 8
  store ptr %agg.result, ptr %result.ptr, align 8
  store ptr %this, ptr %this.addr, align 8
  store ptr %node, ptr %node.addr, align 8
  %this1 = load ptr, ptr %this.addr, align 8
  %0 = load ptr, ptr %node.addr, align 8
  %call = call { <2 x float>, float } @_ZN6Assimp11XGLImporter8ReadVec3ERN4pugi8xml_nodeE(ptr noundef nonnull align 8 dereferenceable(88) %this1, ptr noundef nonnull align 8 dereferenceable(8) %0)
  store { <2 x float>, float } %call, ptr %tmp.coerce, align 8
  call void @llvm.memcpy.p0.p0.i64(ptr align 4 %ref.tmp, ptr align 8 %tmp.coerce, i64 12, i1 false)
  store ptr %ref.tmp, ptr %v, align 8
  %1 = load ptr, ptr %v, align 8
  %x = getelementptr inbounds %class.aiVector3t, ptr %1, i32 0, i32 0
  %2 = load float, ptr %x, align 4
  %cmp = fcmp olt float %2, 0.000000e+00
  br i1 %cmp, label %if.then, label %lor.lhs.false

lor.lhs.false:                                    ; preds = %entry
  %3 = load ptr, ptr %v, align 8
  %x2 = getelementptr inbounds %class.aiVector3t, ptr %3, i32 0, i32 0
  %4 = load float, ptr %x2, align 4
  %cmp3 = fcmp ogt float %4, 1.000000e+00
  br i1 %cmp3, label %if.then, label %lor.lhs.false4

lor.lhs.false4:                                   ; preds = %lor.lhs.false
  %5 = load ptr, ptr %v, align 8
  %y = getelementptr inbounds %class.aiVector3t, ptr %5, i32 0, i32 1
  %6 = load float, ptr %y, align 4
  %cmp5 = fcmp olt float %6, 0.000000e+00
  br i1 %cmp5, label %if.then, label %lor.lhs.false6

lor.lhs.false6:                                   ; preds = %lor.lhs.false4
  %7 = load ptr, ptr %v, align 8
  %y7 = getelementptr inbounds %class.aiVector3t, ptr %7, i32 0, i32 1
  %8 = load float, ptr %y7, align 4
  %cmp8 = fcmp ogt float %8, 1.000000e+00
  br i1 %cmp8, label %if.then, label %lor.lhs.false9

lor.lhs.false9:                                   ; preds = %lor.lhs.false6
  %9 = load ptr, ptr %v, align 8
  %z = getelementptr inbounds %class.aiVector3t, ptr %9, i32 0, i32 2
  %10 = load float, ptr %z, align 4
  %cmp10 = fcmp olt float %10, 0.000000e+00
  br i1 %cmp10, label %if.then, label %lor.lhs.false11

lor.lhs.false11:                                  ; preds = %lor.lhs.false9
  %11 = load ptr, ptr %v, align 8
  %z12 = getelementptr inbounds %class.aiVector3t, ptr %11, i32 0, i32 2
  %12 = load float, ptr %z12, align 4
  %cmp13 = fcmp ogt float %12, 1.000000e+00
  br i1 %cmp13, label %if.then, label %if.end

if.then:                                          ; preds = %lor.lhs.false11, %lor.lhs.false9, %lor.lhs.false6, %lor.lhs.false4, %lor.lhs.false, %entry
  call void @_ZN6Assimp12LogFunctionsINS_11XGLImporterEE7LogWarnIJRA36_KcEEEvDpOT_(ptr noundef nonnull align 1 dereferenceable(36) @.str.84)
  br label %if.end

if.end:                                           ; preds = %if.then, %lor.lhs.false11
  %13 = load ptr, ptr %v, align 8
  %x14 = getelementptr inbounds %class.aiVector3t, ptr %13, i32 0, i32 0
  %14 = load float, ptr %x14, align 4
  %15 = load ptr, ptr %v, align 8
  %y15 = getelementptr inbounds %class.aiVector3t, ptr %15, i32 0, i32 1
  %16 = load float, ptr %y15, align 4
  %17 = load ptr, ptr %v, align 8
  %z16 = getelementptr inbounds %class.aiVector3t, ptr %17, i32 0, i32 2
  %18 = load float, ptr %z16, align 4
  call void @_ZN9aiColor3DC2Efff(ptr noundef nonnull align 4 dereferenceable(12) %agg.result, float noundef %14, float noundef %16, float noundef %18)
  ret void
}