; Function Attrs: mustprogress uwtable
define hidden void @_ZN6Assimp11XGLImporter8ReadCol3ERN4pugi8xml_nodeE(ptr noalias nocapture writeonly sret(%struct.aiColor3D) align 4 %agg.result, ptr nocapture noundef nonnull readnone align 8 dereferenceable(88) %this, ptr noundef nonnull align 8 dereferenceable(8) %node) local_unnamed_addr #10 align 2 {
entry:
  %ref.tmp.i = alloca ptr, align 8
  %call = tail call { <2 x float>, float } @_ZN6Assimp11XGLImporter8ReadVec3ERN4pugi8xml_nodeE(ptr nonnull align 8 poison, ptr noundef nonnull align 8 dereferenceable(8) %node)
  %call.fca.0.extract = extractvalue { <2 x float>, float } %call, 0
  %call.fca.1.extract = extractvalue { <2 x float>, float } %call, 1
  %ref.tmp.sroa.0.0.vec.extract12 = extractelement <2 x float> %call.fca.0.extract, i64 0
  %cmp = fcmp olt float %ref.tmp.sroa.0.0.vec.extract12, 0.000000e+00
  %cmp3 = fcmp ogt float %ref.tmp.sroa.0.0.vec.extract12, 1.000000e+00
  %or.cond = or i1 %cmp, %cmp3
  br i1 %or.cond, label %if.then, label %lor.lhs.false4

lor.lhs.false4:                                   ; preds = %entry
  %ref.tmp.sroa.0.4.vec.extract16 = extractelement <2 x float> %call.fca.0.extract, i64 1
  %cmp5 = fcmp olt float %ref.tmp.sroa.0.4.vec.extract16, 0.000000e+00
  %cmp8 = fcmp ogt float %ref.tmp.sroa.0.4.vec.extract16, 1.000000e+00
  %or.cond19 = or i1 %cmp5, %cmp8
  %cmp10 = fcmp olt float %call.fca.1.extract, 0.000000e+00
  %or.cond20 = select i1 %or.cond19, i1 true, i1 %cmp10
  %cmp13 = fcmp ogt float %call.fca.1.extract, 1.000000e+00
  %or.cond21 = select i1 %or.cond20, i1 true, i1 %cmp13
  br i1 %or.cond21, label %if.then, label %if.end

if.then:                                          ; preds = %lor.lhs.false4, %entry
  call void @llvm.lifetime.start.p0(i64 8, ptr nonnull %ref.tmp.i)
  %call.i = tail call noundef zeroext i1 @_ZN6Assimp13DefaultLogger12isNullLoggerEv()
  br i1 %call.i, label %_ZN6Assimp12LogFunctionsINS_11XGLImporterEE7LogWarnIJRA36_KcEEEvDpOT_.exit, label %if.then.i

if.then.i:                                        ; preds = %if.then
  %call1.i = tail call noundef ptr @_ZN6Assimp13DefaultLogger3getEv()
  store ptr @.str, ptr %ref.tmp.i, align 8
  call void @_ZN6Assimp6Logger4warnIJPKcRA36_S2_EEEvDpOT_(ptr noundef nonnull align 8 dereferenceable(12) %call1.i, ptr noundef nonnull align 8 dereferenceable(8) %ref.tmp.i, ptr noundef nonnull align 1 dereferenceable(36) @.str.84)
  br label %_ZN6Assimp12LogFunctionsINS_11XGLImporterEE7LogWarnIJRA36_KcEEEvDpOT_.exit

_ZN6Assimp12LogFunctionsINS_11XGLImporterEE7LogWarnIJRA36_KcEEEvDpOT_.exit: ; preds = %if.then, %if.then.i
  call void @llvm.lifetime.end.p0(i64 8, ptr nonnull %ref.tmp.i)
  %.pre = extractelement <2 x float> %call.fca.0.extract, i64 1
  br label %if.end

if.end:                                           ; preds = %lor.lhs.false4, %_ZN6Assimp12LogFunctionsINS_11XGLImporterEE7LogWarnIJRA36_KcEEEvDpOT_.exit
  %ref.tmp.sroa.0.4.vec.extract.pre-phi = phi float [ %ref.tmp.sroa.0.4.vec.extract16, %lor.lhs.false4 ], [ %.pre, %_ZN6Assimp12LogFunctionsINS_11XGLImporterEE7LogWarnIJRA36_KcEEEvDpOT_.exit ]
  store float %ref.tmp.sroa.0.0.vec.extract12, ptr %agg.result, align 4
  %g.i = getelementptr inbounds i8, ptr %agg.result, i64 4
  store float %ref.tmp.sroa.0.4.vec.extract.pre-phi, ptr %g.i, align 4
  %b.i = getelementptr inbounds i8, ptr %agg.result, i64 8
  store float %call.fca.1.extract, ptr %b.i, align 4
  ret void
}